; Function Attrs: mustprogress nounwind uwtable
define hidden noundef i32 @_ZNK12ciMethodData12arg_modifiedEi(ptr nocapture noundef nonnull readonly align 8 dereferenceable(176) %0, i32 noundef %1) local_unnamed_addr #1 align 2 {
  %3 = getelementptr inbounds i8, ptr %0, i64 24
  %4 = load i32, ptr %3, align 8
  %5 = getelementptr inbounds i8, ptr %0, i64 32
  %6 = load ptr, ptr %5, align 8
  %7 = getelementptr inbounds i8, ptr %0, i64 40
  %8 = load i32, ptr %7, align 8
  %9 = sext i32 %8 to i64
  %10 = getelementptr inbounds i8, ptr %6, i64 %9
  %11 = icmp slt i32 %4, %8
  br i1 %11, label %.lr.ph.preheader.i, label %_ZNK12ciMethodData8arg_infoEv.exit.thread

.lr.ph.preheader.i:                               ; preds = %2
  %12 = sext i32 %4 to i64
  %13 = getelementptr inbounds i8, ptr %6, i64 %12
  br label %.lr.ph.i

.lr.ph.i:                                         ; preds = %16, %.lr.ph.preheader.i
  %.079.i = phi ptr [ %17, %16 ], [ %13, %.lr.ph.preheader.i ]
  %14 = load i8, ptr %.079.i, align 8
  %15 = icmp eq i8 %14, 9
  br i1 %15, label %19, label %16

16:                                               ; preds = %.lr.ph.i
  %17 = tail call noundef ptr @_ZN10MethodData10next_extraEP10DataLayout(ptr noundef nonnull %.079.i) #12
  %18 = icmp ult ptr %17, %10
  br i1 %18, label %.lr.ph.i, label %_ZNK12ciMethodData8arg_infoEv.exit.thread, !llvm.loop !17

19:                                               ; preds = %.lr.ph.i
  %20 = tail call noundef ptr @_Z23resource_allocate_bytesmN17AllocFailStrategy13AllocFailEnumE(i64 noundef 16, i32 noundef 0) #12
  %21 = getelementptr inbounds i8, ptr %20, i64 8
  store ptr %.079.i, ptr %21, align 8
  store ptr getelementptr inbounds inrange(-16, 152) (i8, ptr @_ZTV13ciArgInfoData, i64 16), ptr %20, align 8
  %22 = add nsw i32 %1, 1
  %23 = getelementptr inbounds i8, ptr %.079.i, i64 8
  %24 = sext i32 %22 to i64
  %25 = getelementptr inbounds [1 x i64], ptr %23, i64 0, i64 %24
  %26 = load i64, ptr %25, align 8
  %27 = trunc i64 %26 to i32
  br label %_ZNK12ciMethodData8arg_infoEv.exit.thread

_ZNK12ciMethodData8arg_infoEv.exit.thread:        ; preds = %16, %2, %19
  %.0 = phi i32 [ %27, %19 ], [ 0, %2 ], [ 0, %16 ]
  ret i32 %.0
}